Certificate:
    Data:
        Version: 3 (0x2)
        Serial Number:
            a9:d7:90:d0:e9:7e:1d:8e:0c:56:c8:d2:fc:de:8d:b5
    Signature Algorithm: sha256WithRSAEncryption
        Issuer: C=DE, O=Legendlime, CN=Legendlime SSL CA-1
        Validity
            Not Before: Mar 23 16:43:15 2021 GMT
            Not After : Mar 24 16:43:15 2023 GMT
        Subject: C=DE, O=Legendlime, CN=myhost
        Subject Public Key Info:
            Public Key Algorithm: rsaEncryption
                Public-Key: (2048 bit)
                Modulus:
                    00:d2:21:f1:c7:23:c3:22:05:67:82:4f:ad:56:aa:
                    d6:3f:54:81:a3:71:c6:53:11:52:e5:b5:4b:0b:e7:
                    dc:41:3f:4c:c8:d5:a5:55:5f:20:45:88:a2:44:a3:
                    d6:c6:d1:b6:d1:fb:51:96:b6:57:7a:f1:41:97:c4:
                    44:7c:91:30:ce:cc:6a:1e:67:36:48:53:83:4a:d3:
                    d9:30:b9:f4:8f:29:92:13:fc:a9:a7:2f:bc:b4:82:
                    c1:0a:69:fc:8c:31:71:3d:e5:a5:f1:0d:cb:eb:68:
                    95:4a:51:8f:67:42:67:17:97:c6:b2:72:20:e3:43:
                    f7:c4:21:f5:ac:a2:2b:13:55:cd:ca:a9:ac:ba:fd:
                    64:7d:e4:de:ad:f3:28:5e:66:f1:74:d5:e9:12:1f:
                    9e:56:2c:d0:15:0a:3c:44:f8:31:c6:84:f1:74:4e:
                    b5:c3:c8:e7:23:ea:da:64:a6:66:77:07:18:d6:4f:
                    ce:0d:6f:5e:dd:69:92:1e:a7:e4:db:9c:8e:a0:00:
                    d2:cd:54:49:1e:79:43:1f:76:ae:5e:61:1d:c8:8c:
                    47:54:49:1d:a0:dc:ae:d2:d0:c3:1b:7a:48:27:ed:
                    a5:46:1e:d8:d5:84:80:da:56:ee:c7:89:9d:ef:2d:
                    85:c6:51:54:df:c3:cf:1c:4b:b4:f7:9e:fc:bb:d0:
                    d4:c5
                Exponent: 65537 (0x10001)
        X509v3 extensions:
            X509v3 Basic Constraints: critical
                CA:FALSE
            X509v3 Key Usage: critical
                Digital Signature, Non Repudiation, Key Encipherment, Key Agreement
            X509v3 Extended Key Usage: critical
                TLS Web Server Authentication, TLS Web Client Authentication
            X509v3 Subject Key Identifier: 
                CD:32:D1:59:4D:02:28:B2:C6:11:BE:E5:8A:9B:3B:38:8E:20:F9:0C
            X509v3 Authority Key Identifier: 
                keyid:71:84:E6:B1:79:22:CE:D4:62:F7:4D:2E:56:78:29:60:4E:35:C9:75

            X509v3 Issuer Alternative Name: 
                URI:https://legendlime.de/
            X509v3 CRL Distribution Points: 

                Full Name:
                  URI:https://legendlime.de/crl/SPI-Asset-Protection-CA.crl

            X509v3 Subject Alternative Name: 
                DNS:myhost, IP Address:192.168.200.21
    Signature Algorithm: sha256WithRSAEncryption
         20:19:5f:21:43:f5:89:3e:1e:e4:9a:75:59:02:8e:24:2c:bc:
         7d:e2:01:f0:6e:11:84:7c:83:12:99:44:1f:9e:6d:64:4b:48:
         6c:e7:12:63:7d:20:2b:d4:9f:60:d7:d0:e1:d6:c1:d7:d4:bd:
         cf:d6:f7:51:c7:13:91:dd:32:51:0b:56:4a:59:84:4e:c9:32:
         b7:c8:ab:30:f2:1d:84:56:d6:ad:3d:17:f6:d6:2e:4e:41:ce:
         f3:b1:9a:56:63:4b:b9:59:97:85:f3:e7:00:7e:2e:a4:d0:c7:
         6f:ec:b4:34:47:52:f6:4d:60:44:db:13:b1:95:58:bd:c4:7d:
         ec:ef:da:96:bc:06:ad:c9:35:97:3b:d4:06:9f:bb:4f:1d:7b:
         4b:b1:62:b8:b2:c7:b4:7f:3d:09:a3:bb:79:90:ee:b8:43:e0:
         bd:e4:ca:e1:a6:d9:67:08:d9:c3:6a:dc:9c:9c:81:da:94:2e:
         ae:a3:58:85:56:8f:f5:60:ba:2d:4e:45:47:9b:3b:7d:31:ee:
         17:77:be:37:8c:3f:16:f7:c0:d3:15:1a:60:8f:68:19:19:b8:
         d4:fc:34:16:a0:b6:ca:2c:78:7f:26:a9:50:31:00:56:dd:e0:
         80:43:31:52:b7:1a:2d:00:dc:7b:2b:ea:c9:1e:4b:e0:b1:3c:
         91:bf:ba:57:db:87:5d:d9:a4:a5:98:8d:b7:ce:c2:ed:f5:cb:
         80:02:6e:58:41:40:83:bc:45:74:28:72:38:7a:5c:b6:95:36:
         cf:99:c1:07:73:77:de:bf:39:ab:c9:7b:a4:e5:97:cc:97:bc:
         34:7a:02:8c:75:eb:5f:c8:21:81:d6:8a:8c:c4:f3:24:6b:54:
         0b:c2:ad:5a:d0:f5:d2:fc:88:fe:fe:17:58:fc:37:f7:da:7f:
         66:61:dd:e4:14:d3:8c:fe:76:5e:d6:46:fa:d0:3a:95:1a:3f:
         81:ef:ea:b8:1b:2a:b9:dd:b6:ff:51:6b:c2:83:c5:8d:eb:68:
         41:c2:d7:5e:0b:32:67:60:ea:00:ca:5b:77:63:91:a6:85:9d:
         4e:02:77:67:05:53:89:d6:3b:b5:92:a6:29:6c:52:b0:f9:56:
         c4:28:87:1b:40:68:d4:06:4a:bd:cb:1b:ec:81:bb:c9:5a:de:
         62:4f:ed:3a:75:ba:03:b4:52:0d:50:0f:97:ca:fc:87:50:0e:
         80:86:68:31:46:35:06:92:81:ab:38:50:f9:83:2e:06:51:2a:
         a2:cb:dd:8e:c1:22:17:fb:95:de:89:85:14:fb:d0:24:f6:8c:
         19:a9:ec:bb:14:38:a7:03:76:75:5e:8b:d0:a3:6f:01:66:7d:
         ba:89:fc:b4:4f:ef:2e:8f
-----BEGIN CERTIFICATE-----
MIIFCDCCAvCgAwIBAgIRAKnXkNDpfh2ODFbI0vzejbUwDQYJKoZIhvcNAQELBQAw
QDELMAkGA1UEBhMCREUxEzARBgNVBAoMCkxlZ2VuZGxpbWUxHDAaBgNVBAMME0xl
Z2VuZGxpbWUgU1NMIENBLTEwHhcNMjEwMzIzMTY0MzE1WhcNMjMwMzI0MTY0MzE1
WjAzMQswCQYDVQQGEwJERTETMBEGA1UECgwKTGVnZW5kbGltZTEPMA0GA1UEAwwG
bXlob3N0MIIBIjANBgkqhkiG9w0BAQEFAAOCAQ8AMIIBCgKCAQEA0iHxxyPDIgVn
gk+tVqrWP1SBo3HGUxFS5bVLC+fcQT9MyNWlVV8gRYiiRKPWxtG20ftRlrZXevFB
l8REfJEwzsxqHmc2SFODStPZMLn0jymSE/yppy+8tILBCmn8jDFxPeWl8Q3L62iV
SlGPZ0JnF5fGsnIg40P3xCH1rKIrE1XNyqmsuv1kfeTerfMoXmbxdNXpEh+eVizQ
FQo8RPgxxoTxdE61w8jnI+raZKZmdwcY1k/ODW9e3WmSHqfk25yOoADSzVRJHnlD
H3auXmEdyIxHVEkdoNyu0tDDG3pIJ+2lRh7Y1YSA2lbux4md7y2FxlFU38PPHEu0
9578u9DUxQIDAQABo4IBCDCCAQQwDAYDVR0TAQH/BAIwADAOBgNVHQ8BAf8EBAMC
A+gwIAYDVR0lAQH/BBYwFAYIKwYBBQUHAwEGCCsGAQUFBwMCMB0GA1UdDgQWBBTN
MtFZTQIossYRvuWKmzs4jiD5DDAfBgNVHSMEGDAWgBRxhOaxeSLO1GL3TS5WeClg
TjXJdTAhBgNVHRIEGjAYhhZodHRwczovL2xlZ2VuZGxpbWUuZGUvMEYGA1UdHwQ/
MD0wO6A5oDeGNWh0dHBzOi8vbGVnZW5kbGltZS5kZS9jcmwvU1BJLUFzc2V0LVBy
b3RlY3Rpb24tQ0EuY3JsMBcGA1UdEQQQMA6CBm15aG9zdIcEwKjIFTANBgkqhkiG
9w0BAQsFAAOCAgEAIBlfIUP1iT4e5Jp1WQKOJCy8feIB8G4RhHyDEplEH55tZEtI
bOcSY30gK9SfYNfQ4dbB19S9z9b3UccTkd0yUQtWSlmETskyt8irMPIdhFbWrT0X
9tYuTkHO87GaVmNLuVmXhfPnAH4upNDHb+y0NEdS9k1gRNsTsZVYvcR97O/alrwG
rck1lzvUBp+7Tx17S7FiuLLHtH89CaO7eZDuuEPgveTK4abZZwjZw2rcnJyB2pQu
rqNYhVaP9WC6LU5FR5s7fTHuF3e+N4w/FvfA0xUaYI9oGRm41Pw0FqC2yix4fyap
UDEAVt3ggEMxUrcaLQDceyvqyR5L4LE8kb+6V9uHXdmkpZiNt87C7fXLgAJuWEFA
g7xFdChyOHpctpU2z5nBB3N33r85q8l7pOWXzJe8NHoCjHXrX8ghgdaKjMTzJGtU
C8KtWtD10vyI/v4XWPw399p/ZmHd5BTTjP52XtZG+tA6lRo/ge/quBsqud22/1Fr
woPFjetoQcLXXgsyZ2DqAMpbd2ORpoWdTgJ3ZwVTidY7tZKmKWxSsPlWxCiHG0Bo
1AZKvcsb7IG7yVreYk/tOnW6A7RSDVAPl8r8h1AOgIZoMUY1BpKBqzhQ+YMuBlEq
osvdjsEiF/uV3omFFPvQJPaMGansuxQ4pwN2dV6L0KNvAWZ9uon8tE/vLo8=
-----END CERTIFICATE-----
